Certificate:
    Data:
        Version: 3 (0x2)
        Serial Number: 1 (0x1)
    Signature Algorithm: sha256WithRSAEncryption
        Issuer: CN=devcert
        Validity
            Not Before: Apr 23 21:33:27 2020 GMT
            Not After : Jul 27 21:33:27 2022 GMT
        Subject: CN=localhost
        Subject Public Key Info:
            Public Key Algorithm: rsaEncryption
                Public-Key: (2048 bit)
                Modulus:
                    00:c8:44:31:4e:b9:2f:81:bf:bf:6b:4f:aa:dd:a2:
                    48:19:b4:a0:36:3f:e7:80:0e:8c:9c:18:d5:25:8e:
                    7c:da:86:c0:8f:d9:b0:d8:9f:f6:13:88:32:ec:2b:
                    2f:35:fd:0c:f3:d7:56:f1:e4:62:56:82:1f:54:29:
                    85:8f:c8:74:57:29:fe:69:6d:a4:cd:b3:8e:b5:95:
                    20:c7:e7:40:34:e8:22:51:85:36:49:66:df:ba:31:
                    c2:6a:5e:6a:ff:45:cc:8f:9b:13:17:ef:e7:0b:7b:
                    44:7c:98:34:79:41:16:e2:ce:a6:be:09:a3:c9:12:
                    26:a3:f3:07:22:c7:c1:ef:86:7c:90:a7:3c:33:6a:
                    ea:32:b7:1c:45:47:2d:87:9c:a6:d4:37:87:11:b9:
                    33:7c:45:fb:41:a1:27:8c:bc:b6:b3:e0:c4:9e:54:
                    7e:5a:06:36:70:96:8b:dc:48:44:68:6c:e5:46:10:
                    e4:65:e8:ef:5b:52:bf:a7:42:24:14:67:62:c3:45:
                    94:eb:f3:1e:b2:19:e7:1f:2b:de:54:c3:da:22:3c:
                    87:1b:d0:a8:e0:99:a7:13:51:c4:71:b1:0d:c4:1c:
                    48:0c:54:2c:9f:c1:6a:07:c9:3e:3f:d1:de:17:ae:
                    3a:ee:22:f6:7c:fa:9a:a1:5a:10:ba:c0:6a:d0:a2:
                    d1:d7
                Exponent: 65537 (0x10001)
        X509v3 extensions:
            X509v3 Basic Constraints: critical
                CA:FALSE
            X509v3 Subject Key Identifier: 
                7F:81:5B:A9:DB:32:45:06:CD:3D:E8:67:ED:F8:25:66:F7:59:73:20
            X509v3 Authority Key Identifier: 
                keyid:35:C0:3F:8B:F7:80:28:BA:C3:D4:D4:B5:D1:EA:36:E1:50:FE:0C:9C
                DirName:/CN=devcert
                serial:E3:F6:6F:0B:5C:ED:79:18

            X509v3 Key Usage: critical
                Digital Signature, Key Encipherment
            X509v3 Extended Key Usage: 
                TLS Web Server Authentication
            X509v3 Subject Alternative Name: 
                DNS:localhost, DNS:*.localhost
    Signature Algorithm: sha256WithRSAEncryption
         30:21:17:9a:29:cd:ac:0b:61:da:81:34:8d:7b:dc:6b:fe:d2:
         98:af:09:d7:95:f4:f8:d7:a9:20:01:b9:7e:ab:c5:c1:d6:a0:
         53:42:40:96:53:bc:9e:eb:18:1c:5f:70:0c:db:fc:1e:a9:dd:
         9e:07:ab:0a:11:75:b2:5c:cf:47:ec:2c:ff:22:bb:7c:1b:64:
         33:3c:f8:8d:3c:40:e4:18:4f:3a:a1:b8:88:9f:14:68:d6:aa:
         fa:f6:2a:68:8c:1c:f9:da:e6:e9:10:aa:fc:ed:4c:8b:9e:e0:
         36:74:64:8b:c7:82:4c:0a:41:4a:4a:84:a6:14:ca:4b:56:7a:
         e1:75:62:ee:9a:86:c1:d8:5e:91:09:5d:4c:25:fe:98:e1:a6:
         c0:9e:be:6c:93:22:e0:25:c2:90:69:cb:1e:de:17:f0:ca:87:
         92:e5:57:87:4a:10:08:d6:ee:e7:96:3a:36:c3:63:02:be:ef:
         bf:40:fb:53:67:26:a7:fc:03:b3:8a:44:2d:fa:b3:7a:ac:d8:
         32:4f:69:ce:85:0c:99:07:c4:44:85:7d:4e:79:54:f4:f6:0b:
         75:97:9e:86:87:5d:c7:d0:fd:0f:dd:ee:48:a6:61:64:03:4e:
         9f:64:6b:76:6e:ff:90:3e:c7:6d:8f:4f:a8:ea:30:39:d7:35:
         f7:cb:01:2a
-----BEGIN CERTIFICATE-----
MIIDXjCCAkagAwIBAgIBATANBgkqhkiG9w0BAQsFADASMRAwDgYDVQQDDAdkZXZj
ZXJ0MB4XDTIwMDQyMzIxMzMyN1oXDTIyMDcyNzIxMzMyN1owFDESMBAGA1UEAwwJ
bG9jYWxob3N0MIIBIjANBgkqhkiG9w0BAQEFAAOCAQ8AMIIBCgKCAQEAyEQxTrkv
gb+/a0+q3aJIGbSgNj/ngA6MnBjVJY582obAj9mw2J/2E4gy7CsvNf0M89dW8eRi
VoIfVCmFj8h0Vyn+aW2kzbOOtZUgx+dANOgiUYU2SWbfujHCal5q/0XMj5sTF+/n
C3tEfJg0eUEW4s6mvgmjyRImo/MHIsfB74Z8kKc8M2rqMrccRUcth5ym1DeHEbkz
fEX7QaEnjLy2s+DEnlR+WgY2cJaL3EhEaGzlRhDkZejvW1K/p0IkFGdiw0WU6/Me
shnnHyveVMPaIjyHG9Co4JmnE1HEcbENxBxIDFQsn8FqB8k+P9HeF6467iL2fPqa
oVoQusBq0KLR1wIDAQABo4G8MIG5MAwGA1UdEwEB/wQCMAAwHQYDVR0OBBYEFH+B
W6nbMkUGzT3oZ+34JWb3WXMgMEIGA1UdIwQ7MDmAFDXAP4v3gCi6w9TUtdHqNuFQ
/gycoRakFDASMRAwDgYDVQQDDAdkZXZjZXJ0ggkA4/ZvC1zteRgwDgYDVR0PAQH/
BAQDAgWgMBMGA1UdJQQMMAoGCCsGAQUFBwMBMCEGA1UdEQQaMBiCCWxvY2FsaG9z
dIILKi5sb2NhbGhvc3QwDQYJKoZIhvcNAQELBQADggEBADAhF5opzawLYdqBNI17
3Gv+0pivCdeV9PjXqSABuX6rxcHWoFNCQJZTvJ7rGBxfcAzb/B6p3Z4HqwoRdbJc
z0fsLP8iu3wbZDM8+I08QOQYTzqhuIifFGjWqvr2KmiMHPna5ukQqvztTIue4DZ0
ZIvHgkwKQUpKhKYUyktWeuF1Yu6ahsHYXpEJXUwl/pjhpsCevmyTIuAlwpBpyx7e
F/DKh5LlV4dKEAjW7ueWOjbDYwK+779A+1NnJqf8A7OKRC36s3qs2DJPac6FDJkH
xESFfU55VPT2C3WXnoaHXcfQ/Q/d7kimYWQDTp9ka3Zu/5A+x22PT6jqMDnXNffL
ASo=
-----END CERTIFICATE-----
